target datalayout = "e-m:e-p270:32:32-p271:32:32-p272:64:64-i64:64-i128:128-f80:128-n8:16:32:64-S128"
target triple = "x86_64-pc-linux-gnu"

%struct.uv__io_s = type { ptr, [2 x ptr], [2 x ptr], i32, i32, i32 }
%struct.uv_stream_s = type { ptr, ptr, i32, ptr, [2 x ptr], %union.anon.8, ptr, i32, i64, ptr, ptr, ptr, ptr, %struct.uv__io_s, [2 x ptr], [2 x ptr], ptr, i32, i32, ptr }
%union.anon.8 = type { [4 x ptr] }

; Function Attrs: nounwind uwtable
define dso_local i32 @uv_read_start(ptr noundef %0, ptr noundef %1, ptr noundef %2) #0 {
  %4 = alloca i32, align 4
  %5 = alloca ptr, align 8
  %6 = alloca ptr, align 8
  %7 = alloca ptr, align 8
  store ptr %0, ptr %5, align 8, !tbaa !121
  store ptr %1, ptr %6, align 8, !tbaa !14
  store ptr %2, ptr %7, align 8, !tbaa !14
  %8 = load ptr, ptr %5, align 8, !tbaa !121
  %9 = icmp eq ptr %8, null
  br i1 %9, label %16, label %10

10:                                               ; preds = %3
  %11 = load ptr, ptr %6, align 8, !tbaa !14
  %12 = icmp eq ptr %11, null
  br i1 %12, label %16, label %13

13:                                               ; preds = %10
  %14 = load ptr, ptr %7, align 8, !tbaa !14
  %15 = icmp eq ptr %14, null
  br i1 %15, label %16, label %17

16:                                               ; preds = %13, %10, %3
  store i32 -22, ptr %4, align 4
  br label %43

17:                                               ; preds = %13
  %18 = load ptr, ptr %5, align 8, !tbaa !121
  %19 = getelementptr inbounds nuw %struct.uv_stream_s, ptr %18, i32 0, i32 7
  %20 = load i32, ptr %19, align 8, !tbaa !123
  %21 = and i32 %20, 1
  %22 = icmp ne i32 %21, 0
  br i1 %22, label %23, label %24

23:                                               ; preds = %17
  store i32 -22, ptr %4, align 4
  br label %43

24:                                               ; preds = %17
  %25 = load ptr, ptr %5, align 8, !tbaa !121
  %26 = getelementptr inbounds nuw %struct.uv_stream_s, ptr %25, i32 0, i32 7
  %27 = load i32, ptr %26, align 8, !tbaa !123
  %28 = and i32 %27, 4096
  %29 = icmp ne i32 %28, 0
  br i1 %29, label %30, label %31

30:                                               ; preds = %24
  store i32 -114, ptr %4, align 4
  br label %43

31:                                               ; preds = %24
  %32 = load ptr, ptr %5, align 8, !tbaa !121
  %33 = getelementptr inbounds nuw %struct.uv_stream_s, ptr %32, i32 0, i32 7
  %34 = load i32, ptr %33, align 8, !tbaa !123
  %35 = and i32 %34, 16384
  %36 = icmp ne i32 %35, 0
  br i1 %36, label %38, label %37

37:                                               ; preds = %31
  store i32 -107, ptr %4, align 4
  br label %43

38:                                               ; preds = %31
  %39 = load ptr, ptr %5, align 8, !tbaa !121
  %40 = load ptr, ptr %6, align 8, !tbaa !14
  %41 = load ptr, ptr %7, align 8, !tbaa !14
  %42 = call i32 @uv__read_start(ptr noundef %39, ptr noundef %40, ptr noundef %41)
  store i32 %42, ptr %4, align 4
  br label %43

43:                                               ; preds = %38, %37, %30, %23, %16
  %44 = load i32, ptr %4, align 4
  ret i32 %44
}