; Function Attrs: nounwind uwtable
define dso_local i32 @uv_read_start(ptr noundef %0, ptr noundef %1, ptr noundef %2) local_unnamed_addr #0 {
  %4 = icmp eq ptr %0, null
  %5 = icmp eq ptr %1, null
  %or.cond = or i1 %4, %5
  %6 = icmp eq ptr %2, null
  %or.cond3 = or i1 %or.cond, %6
  br i1 %or.cond3, label %17, label %7

7:                                                ; preds = %3
  %8 = getelementptr inbounds nuw i8, ptr %0, i64 88
  %9 = load i32, ptr %8, align 8, !tbaa !88
  %10 = and i32 %9, 1
  %.not = icmp eq i32 %10, 0
  br i1 %.not, label %11, label %17

11:                                               ; preds = %7
  %12 = and i32 %9, 4096
  %.not15 = icmp eq i32 %12, 0
  br i1 %.not15, label %13, label %17

13:                                               ; preds = %11
  %14 = and i32 %9, 16384
  %.not16 = icmp eq i32 %14, 0
  br i1 %.not16, label %17, label %15

15:                                               ; preds = %13
  %16 = tail call i32 @uv__read_start(ptr noundef nonnull %0, ptr noundef nonnull %1, ptr noundef nonnull %2) #26
  br label %17

17:                                               ; preds = %13, %11, %7, %3, %15
  %.0 = phi i32 [ %16, %15 ], [ -22, %3 ], [ -22, %7 ], [ -114, %11 ], [ -107, %13 ]
  ret i32 %.0
}